; Function Attrs: mustprogress nofree norecurse nounwind willreturn memory(argmem: readwrite) uwtable
define dso_local void @_ZN4absl18container_internal15RecordEraseSlowEPNS0_14HashtablezInfoE(ptr noundef captures(none) %0) local_unnamed_addr #6 {
  %2 = getelementptr inbounds nuw i8, ptr %0, i64 40
  %3 = atomicrmw sub ptr %2, i64 1 monotonic, align 8
  %4 = getelementptr inbounds nuw i8, ptr %0, i64 48
  %5 = load atomic i64, ptr %4 monotonic, align 8
  %6 = add i64 %5, 1
  store atomic i64 %6, ptr %4 monotonic, align 8
  ret void
}